V3.10
p0
.VLALR
p0
.VBOOL FLOAT NUMBER COMMA COMMAEND IDENTIFIER EQUAL STRING MINUS LEFTBRACE RIGHTBRACE LEFTBRACKET RIGHTBRACKET PERIOD EPLUS EMINUStop : objectlistobjectlist : objectitemobjectlist : objectlist objectitemobjectlist : objectlist COMMA objectitemobject : LEFTBRACE objectlist RIGHTBRACEobject : LEFTBRACE objectlist COMMA RIGHTBRACEobject : LEFTBRACE RIGHTBRACE\u000a        objectkey : IDENTIFIER\u000a                  | STRING\u000a        \u000a        objectitem : objectkey EQUAL number\u000a                   | objectkey EQUAL BOOL\u000a                   | objectkey EQUAL STRING\u000a                   | objectkey EQUAL object\u000a                   | objectkey EQUAL list\u000a        objectitem : blockblock : blockId objectblock : blockId block\u000a        blockId : IDENTIFIER\u000a                | STRING\u000a        \u000a        list : LEFTBRACKET listitems RIGHTBRACKET\u000a             | LEFTBRACKET listitems COMMA RIGHTBRACKET\u000a        list : LEFTBRACKET RIGHTBRACKETlistitems : listitemlistitems : listitems COMMA listitem\u000a        listitem : number\u000a                 | object\u000a                 | STRING\u000a        number : intnumber : floatnumber : int expnumber : float expint : MINUS intint : NUMBERfloat : MINUS floatfloat : FLOATexp : EPLUS NUMBERexp : EMINUS NUMBER
p0
.(dp0
L0L
(dp1
VIDENTIFIER
p2
L7L
sVSTRING
p3
L5L
ssL1L
(dp4
V$end
p5
L0L
ssL2L
(dp6
V$end
p7
L-1L
sVCOMMA
p8
L10L
sg2
L7L
sg3
L5L
ssL3L
(dp9
g8
L-2L
sg2
L-2L
sg3
L-2L
sg7
L-2L
sVRIGHTBRACE
p10
L-2L
ssL4L
(dp11
VEQUAL
p12
L11L
ssL5L
(dp13
g12
L-9L
sVLEFTBRACE
p14
L-19L
sVIDENTIFIER
p15
L-19L
sVSTRING
p16
L-19L
ssL6L
(dp17
g8
L-15L
sg2
L-15L
sg3
L-15L
sg7
L-15L
sg10
L-15L
ssL7L
(dp18
g12
L-8L
sg14
L-18L
sg15
L-18L
sg16
L-18L
ssL8L
(dp19
g14
L14L
sg15
L15L
sg16
L16L
ssL9L
(dp20
g8
L-3L
sg2
L-3L
sg3
L-3L
sg7
L-3L
sg10
L-3L
ssL10L
(dp21
g2
L7L
sg3
L5L
ssL11L
(dp22
VBOOL
p23
L19L
sVSTRING
p24
L20L
sg14
L14L
sVLEFTBRACKET
p25
L25L
sVMINUS
p26
L26L
sVNUMBER
p27
L27L
sVFLOAT
p28
L28L
ssL12L
(dp29
g8
L-16L
sg2
L-16L
sg3
L-16L
sg7
L-16L
sg10
L-16L
ssL13L
(dp30
g8
L-17L
sg2
L-17L
sg3
L-17L
sg7
L-17L
sg10
L-17L
ssL14L
(dp31
VRIGHTBRACE
p32
L30L
sg2
L7L
sg3
L5L
ssL15L
(dp33
g14
L-18L
sg15
L-18L
sg16
L-18L
ssL16L
(dp34
g14
L-19L
sg15
L-19L
sg16
L-19L
ssL17L
(dp35
g8
L-4L
sg2
L-4L
sg3
L-4L
sg7
L-4L
sg10
L-4L
ssL18L
(dp36
g8
L-10L
sg2
L-10L
sg3
L-10L
sg7
L-10L
sg10
L-10L
ssL19L
(dp37
g8
L-11L
sg2
L-11L
sg3
L-11L
sg7
L-11L
sg10
L-11L
ssL20L
(dp38
g8
L-12L
sg2
L-12L
sg3
L-12L
sg7
L-12L
sg10
L-12L
ssL21L
(dp39
g8
L-13L
sg2
L-13L
sg3
L-13L
sg7
L-13L
sg10
L-13L
ssL22L
(dp40
g8
L-14L
sg2
L-14L
sg3
L-14L
sg7
L-14L
sg10
L-14L
ssL23L
(dp41
g8
L-28L
sg2
L-28L
sg3
L-28L
sg7
L-28L
sg10
L-28L
sVRIGHTBRACKET
p42
L-28L
sVEPLUS
p43
L32L
sVEMINUS
p44
L33L
ssL24L
(dp45
g8
L-29L
sg2
L-29L
sg3
L-29L
sg7
L-29L
sg10
L-29L
sg42
L-29L
sg43
L32L
sg44
L33L
ssL25L
(dp46
VRIGHTBRACKET
p47
L36L
sVSTRING
p48
L40L
sg14
L14L
sg26
L26L
sg27
L27L
sg28
L28L
ssL26L
(dp49
g26
L26L
sg27
L27L
sg28
L28L
ssL27L
(dp50
g43
L-33L
sg44
L-33L
sg8
L-33L
sg2
L-33L
sg3
L-33L
sg7
L-33L
sg10
L-33L
sg42
L-33L
ssL28L
(dp51
g43
L-35L
sg44
L-35L
sg8
L-35L
sg2
L-35L
sg3
L-35L
sg7
L-35L
sg10
L-35L
sg42
L-35L
ssL29L
(dp52
g10
L43L
sVCOMMA
p53
L44L
sg2
L7L
sg3
L5L
ssL30L
(dp54
g8
L-7L
sg2
L-7L
sg3
L-7L
sg7
L-7L
sg10
L-7L
sg42
L-7L
ssL31L
(dp55
g8
L-30L
sg2
L-30L
sg3
L-30L
sg7
L-30L
sg10
L-30L
sg42
L-30L
ssL32L
(dp56
VNUMBER
p57
L45L
ssL33L
(dp58
VNUMBER
p59
L46L
ssL34L
(dp60
g8
L-31L
sg2
L-31L
sg3
L-31L
sg7
L-31L
sg10
L-31L
sg42
L-31L
ssL35L
(dp61
g42
L47L
sVCOMMA
p62
L48L
ssL36L
(dp63
g8
L-22L
sg2
L-22L
sg3
L-22L
sg7
L-22L
sg10
L-22L
ssL37L
(dp64
g42
L-23L
sg62
L-23L
ssL38L
(dp65
g42
L-25L
sg62
L-25L
ssL39L
(dp66
g42
L-26L
sg62
L-26L
ssL40L
(dp67
g42
L-27L
sg62
L-27L
ssL41L
(dp68
g43
L-32L
sg44
L-32L
sg8
L-32L
sg2
L-32L
sg3
L-32L
sg7
L-32L
sg10
L-32L
sg42
L-32L
ssL42L
(dp69
g43
L-34L
sg44
L-34L
sg8
L-34L
sg2
L-34L
sg3
L-34L
sg7
L-34L
sg10
L-34L
sg42
L-34L
ssL43L
(dp70
g8
L-5L
sg2
L-5L
sg3
L-5L
sg7
L-5L
sg10
L-5L
sg42
L-5L
ssL44L
(dp71
VRIGHTBRACE
p72
L49L
sg2
L7L
sg3
L5L
ssL45L
(dp73
g8
L-36L
sg2
L-36L
sg3
L-36L
sg7
L-36L
sg10
L-36L
sg42
L-36L
ssL46L
(dp74
g8
L-37L
sg2
L-37L
sg3
L-37L
sg7
L-37L
sg10
L-37L
sg42
L-37L
ssL47L
(dp75
g8
L-20L
sg2
L-20L
sg3
L-20L
sg7
L-20L
sg10
L-20L
ssL48L
(dp76
VRIGHTBRACKET
p77
L50L
sg48
L40L
sg14
L14L
sg26
L26L
sg27
L27L
sg28
L28L
ssL49L
(dp78
g8
L-6L
sg2
L-6L
sg3
L-6L
sg7
L-6L
sg10
L-6L
sg42
L-6L
ssL50L
(dp79
g8
L-21L
sg2
L-21L
sg3
L-21L
sg7
L-21L
sg10
L-21L
ssL51L
(dp80
g42
L-24L
sg62
L-24L
ss.(dp0
L0L
(dp1
Vtop
p2
L1L
sVobjectlist
p3
L2L
sVobjectitem
p4
L3L
sVobjectkey
p5
L4L
sVblock
p6
L6L
sVblockId
p7
L8L
ssL1L
(dp8
sL2L
(dp9
Vobjectitem
p10
L9L
sg5
L4L
sg6
L6L
sg7
L8L
ssL3L
(dp11
sL4L
(dp12
sL5L
(dp13
sL6L
(dp14
sL7L
(dp15
sL8L
(dp16
g7
L8L
sVobject
p17
L12L
sVblock
p18
L13L
ssL9L
(dp19
sL10L
(dp20
Vobjectitem
p21
L17L
sg5
L4L
sg6
L6L
sg7
L8L
ssL11L
(dp22
Vnumber
p23
L18L
sVobject
p24
L21L
sVlist
p25
L22L
sVint
p26
L23L
sVfloat
p27
L24L
ssL12L
(dp28
sL13L
(dp29
sL14L
(dp30
Vobjectlist
p31
L29L
sg4
L3L
sg5
L4L
sg6
L6L
sg7
L8L
ssL15L
(dp32
sL16L
(dp33
sL17L
(dp34
sL18L
(dp35
sL19L
(dp36
sL20L
(dp37
sL21L
(dp38
sL22L
(dp39
sL23L
(dp40
Vexp
p41
L31L
ssL24L
(dp42
Vexp
p43
L34L
ssL25L
(dp44
Vlistitems
p45
L35L
sVlistitem
p46
L37L
sVnumber
p47
L38L
sVobject
p48
L39L
sg26
L23L
sg27
L24L
ssL26L
(dp49
Vint
p50
L41L
sVfloat
p51
L42L
ssL27L
(dp52
sL28L
(dp53
sL29L
(dp54
g10
L9L
sg5
L4L
sg6
L6L
sg7
L8L
ssL30L
(dp55
sL31L
(dp56
sL32L
(dp57
sL33L
(dp58
sL34L
(dp59
sL35L
(dp60
sL36L
(dp61
sL37L
(dp62
sL38L
(dp63
sL39L
(dp64
sL40L
(dp65
sL41L
(dp66
sL42L
(dp67
sL43L
(dp68
sL44L
(dp69
g21
L17L
sg5
L4L
sg6
L6L
sg7
L8L
ssL45L
(dp70
sL46L
(dp71
sL47L
(dp72
sL48L
(dp73
Vlistitem
p74
L51L
sg47
L38L
sg48
L39L
sg26
L23L
sg27
L24L
ssL49L
(dp75
sL50L
(dp76
sL51L
(dp77
s.(lp0
(VS' -> top
p1
VS'
p2
L1L
NNNtp3
a(Vtop -> objectlist
p4
Vtop
p5
L1L
Vp_top
p6
Vparser.py
p7
L91L
tp8
a(Vobjectlist -> objectitem
p9
Vobjectlist
p10
L1L
Vp_objectlist_0
p11
Vparser.py
p12
L98L
tp13
a(Vobjectlist -> objectlist objectitem
p14
Vobjectlist
p15
L2L
Vp_objectlist_1
p16
Vparser.py
p17
L104L
tp18
a(Vobjectlist -> objectlist COMMA objectitem
p19
Vobjectlist
p20
L3L
Vp_objectlist_2
p21
Vparser.py
p22
L110L
tp23
a(Vobject -> LEFTBRACE objectlist RIGHTBRACE
p24
Vobject
p25
L3L
Vp_object_0
p26
Vparser.py
p27
L116L
tp28
a(Vobject -> LEFTBRACE objectlist COMMA RIGHTBRACE
p29
Vobject
p30
L4L
Vp_object_1
p31
Vparser.py
p32
L122L
tp33
a(Vobject -> LEFTBRACE RIGHTBRACE
p34
Vobject
p35
L2L
Vp_object_2
p36
Vparser.py
p37
L128L
tp38
a(Vobjectkey -> IDENTIFIER
p39
Vobjectkey
p40
L1L
Vp_objectkey_0
p41
Vparser.py
p42
L135L
tp43
a(Vobjectkey -> STRING
p44
g40
L1L
g41
Vparser.py
p45
L136L
tp46
a(Vobjectitem -> objectkey EQUAL number
p47
Vobjectitem
p48
L3L
Vp_objectitem_0
p49
Vparser.py
p50
L144L
tp51
a(Vobjectitem -> objectkey EQUAL BOOL
p52
g48
L3L
g49
Vparser.py
p53
L145L
tp54
a(Vobjectitem -> objectkey EQUAL STRING
p55
g48
L3L
g49
Vparser.py
p56
L146L
tp57
a(Vobjectitem -> objectkey EQUAL object
p58
g48
L3L
g49
Vparser.py
p59
L147L
tp60
a(Vobjectitem -> objectkey EQUAL list
p61
g48
L3L
g49
Vparser.py
p62
L148L
tp63
a(Vobjectitem -> block
p64
Vobjectitem
p65
L1L
Vp_objectitem_1
p66
Vparser.py
p67
L155L
tp68
a(Vblock -> blockId object
p69
Vblock
p70
L2L
Vp_block_0
p71
Vparser.py
p72
L162L
tp73
a(Vblock -> blockId block
p74
Vblock
p75
L2L
Vp_block_1
p76
Vparser.py
p77
L168L
tp78
a(VblockId -> IDENTIFIER
p79
VblockId
p80
L1L
Vp_blockId
p81
Vparser.py
p82
L175L
tp83
a(VblockId -> STRING
p84
g80
L1L
g81
Vparser.py
p85
L176L
tp86
a(Vlist -> LEFTBRACKET listitems RIGHTBRACKET
p87
Vlist
p88
L3L
Vp_list_0
p89
Vparser.py
p90
L185L
tp91
a(Vlist -> LEFTBRACKET listitems COMMA RIGHTBRACKET
p92
g88
L4L
g89
Vparser.py
p93
L186L
tp94
a(Vlist -> LEFTBRACKET RIGHTBRACKET
p95
Vlist
p96
L2L
Vp_list_1
p97
Vparser.py
p98
L193L
tp99
a(Vlistitems -> listitem
p100
Vlistitems
p101
L1L
Vp_listitems_0
p102
Vparser.py
p103
L200L
tp104
a(Vlistitems -> listitems COMMA listitem
p105
Vlistitems
p106
L3L
Vp_listitems_1
p107
Vparser.py
p108
L206L
tp109
a(Vlistitem -> number
p110
Vlistitem
p111
L1L
Vp_listitem
p112
Vparser.py
p113
L213L
tp114
a(Vlistitem -> object
p115
g111
L1L
g112
Vparser.py
p116
L214L
tp117
a(Vlistitem -> STRING
p118
g111
L1L
g112
Vparser.py
p119
L215L
tp120
a(Vnumber -> int
p121
Vnumber
p122
L1L
Vp_number_0
p123
Vparser.py
p124
L222L
tp125
a(Vnumber -> float
p126
Vnumber
p127
L1L
Vp_number_1
p128
Vparser.py
p129
L228L
tp130
a(Vnumber -> int exp
p131
Vnumber
p132
L2L
Vp_number_2
p133
Vparser.py
p134
L234L
tp135
a(Vnumber -> float exp
p136
Vnumber
p137
L2L
Vp_number_3
p138
Vparser.py
p139
L240L
tp140
a(Vint -> MINUS int
p141
Vint
p142
L2L
Vp_int_0
p143
Vparser.py
p144
L246L
tp145
a(Vint -> NUMBER
p146
Vint
p147
L1L
Vp_int_1
p148
Vparser.py
p149
L252L
tp150
a(Vfloat -> MINUS float
p151
Vfloat
p152
L2L
Vp_float_0
p153
Vparser.py
p154
L258L
tp155
a(Vfloat -> FLOAT
p156
Vfloat
p157
L1L
Vp_float_1
p158
Vparser.py
p159
L262L
tp160
a(Vexp -> EPLUS NUMBER
p161
Vexp
p162
L2L
Vp_exp_0
p163
Vparser.py
p164
L266L
tp165
a(Vexp -> EMINUS NUMBER
p166
Vexp
p167
L2L
Vp_exp_1
p168
Vparser.py
p169
L272L
tp170
a.